target datalayout = "e-m:e-p270:32:32-p271:32:32-p272:64:64-i64:64-i128:128-f80:128-n8:16:32:64-S128"
target triple = "x86_64-pc-linux-gnu"

@stderr = external global ptr, align 8
@_ZL12pkgDataFlags = internal global ptr null, align 8
@.str.55 = private unnamed_addr constant [2 x i8] c"/\00", align 1
@_ZL12libFileNames = internal global [4 x [256 x i8]] zeroinitializer, align 16
@.str.109 = private unnamed_addr constant [13 x i8] c"pkgdata: %s\0A\00", align 1
@.str.110 = private unnamed_addr constant [23 x i8] c"-- return status = %d\0A\00", align 1
@.str.118 = private unnamed_addr constant [22 x i8] c"cd %s && %s %s %s%s%s\00", align 1
@.str.119 = private unnamed_addr constant [46 x i8] c"Error installing library. Failed command: %s\0A\00", align 1

; Function Attrs: mustprogress uwtable
define internal noundef i32 @_ZL10runCommandPKca(ptr noundef %0, i8 noundef signext %1) #1 {
  %3 = alloca i32, align 4
  %4 = alloca ptr, align 8
  %5 = alloca i8, align 1
  %6 = alloca ptr, align 8
  %7 = alloca [4096 x i8], align 16
  %8 = alloca i32, align 4
  %9 = alloca i32, align 4
  %10 = alloca i32, align 4
  store ptr %0, ptr %4, align 8, !tbaa !18
  store i8 %1, ptr %5, align 1, !tbaa !27
  call void @llvm.lifetime.start.p0(i64 8, ptr %6) #14
  store ptr null, ptr %6, align 8, !tbaa !18
  call void @llvm.lifetime.start.p0(i64 4096, ptr %7) #14
  call void @llvm.lifetime.start.p0(i64 4, ptr %8) #14
  %11 = load ptr, ptr %4, align 8, !tbaa !18
  %12 = call i64 @strlen(ptr noundef %11) #17
  %13 = trunc i64 %12 to i32
  store i32 %13, ptr %8, align 4, !tbaa !15
  %14 = load i32, ptr %8, align 4, !tbaa !15
  %15 = icmp eq i32 %14, 0
  br i1 %15, label %16, label %17

16:                                               ; preds = %2
  store i32 0, ptr %3, align 4
  store i32 1, ptr %9, align 4
  br label %47

17:                                               ; preds = %2
  %18 = load i8, ptr %5, align 1, !tbaa !27
  %19 = icmp ne i8 %18, 0
  br i1 %19, label %21, label %20

20:                                               ; preds = %17
  br label %22

21:                                               ; preds = %17
  br label %22

22:                                               ; preds = %21, %20
  %23 = load ptr, ptr %4, align 8, !tbaa !18
  store ptr %23, ptr %6, align 8, !tbaa !18
  br label %24

24:                                               ; preds = %22
  %25 = load ptr, ptr %6, align 8, !tbaa !18
  %26 = call i32 (ptr, ...) @printf(ptr noundef @.str.109, ptr noundef %25)
  call void @llvm.lifetime.start.p0(i64 4, ptr %10) #14
  %27 = load ptr, ptr %6, align 8, !tbaa !18
  %28 = call i32 @system(ptr noundef %27)
  store i32 %28, ptr %10, align 4, !tbaa !15
  %29 = load i32, ptr %10, align 4, !tbaa !15
  %30 = icmp ne i32 %29, 0
  br i1 %30, label %31, label %35

31:                                               ; preds = %24
  %32 = load ptr, ptr @stderr, align 8, !tbaa !31
  %33 = load i32, ptr %10, align 4, !tbaa !15
  %34 = call i32 (ptr, ptr, ...) @fprintf(ptr noundef %32, ptr noundef @.str.110, i32 noundef %33) #14
  store i32 1, ptr %10, align 4, !tbaa !15
  br label %35

35:                                               ; preds = %31, %24
  %36 = load ptr, ptr %6, align 8, !tbaa !18
  %37 = getelementptr inbounds [4096 x i8], ptr %7, i64 0, i64 0
  %38 = icmp ne ptr %36, %37
  br i1 %38, label %39, label %45

39:                                               ; preds = %35
  %40 = load ptr, ptr %6, align 8, !tbaa !18
  %41 = load ptr, ptr %4, align 8, !tbaa !18
  %42 = icmp ne ptr %40, %41
  br i1 %42, label %43, label %45

43:                                               ; preds = %39
  %44 = load ptr, ptr %6, align 8, !tbaa !18
  call void @uprv_free_77(ptr noundef %44)
  br label %45

45:                                               ; preds = %43, %39, %35
  %46 = load i32, ptr %10, align 4, !tbaa !15
  store i32 %46, ptr %3, align 4
  store i32 1, ptr %9, align 4
  call void @llvm.lifetime.end.p0(i64 4, ptr %10) #14
  br label %47

47:                                               ; preds = %45, %16
  call void @llvm.lifetime.end.p0(i64 4, ptr %8) #14
  call void @llvm.lifetime.end.p0(i64 4096, ptr %7) #14
  call void @llvm.lifetime.end.p0(i64 8, ptr %6) #14
  %48 = load i32, ptr %3, align 4
  ret i32 %48
}

; Function Attrs: mustprogress uwtable
define internal noundef i32 @_ZL18pkg_installLibraryPKcS0_a(ptr noundef %0, ptr noundef %1, i8 noundef signext %2) #1 {
  %4 = alloca i32, align 4
  %5 = alloca ptr, align 8
  %6 = alloca ptr, align 8
  %7 = alloca i8, align 1
  %8 = alloca i32, align 4
  %9 = alloca [16384 x i8], align 16
  %10 = alloca i32, align 4
  %11 = alloca i32, align 4
  store ptr %0, ptr %5, align 8, !tbaa !18
  store ptr %1, ptr %6, align 8, !tbaa !18
  store i8 %2, ptr %7, align 1, !tbaa !27
  call void @llvm.lifetime.start.p0(i64 4, ptr %8) #14
  store i32 0, ptr %8, align 4, !tbaa !15
  call void @llvm.lifetime.start.p0(i64 16384, ptr %9) #14
  call void @llvm.lifetime.start.p0(i64 4, ptr %10) #14
  %12 = getelementptr inbounds [16384 x i8], ptr %9, i64 0, i64 0
  %13 = load ptr, ptr %6, align 8, !tbaa !18
  %14 = load ptr, ptr @_ZL12pkgDataFlags, align 8, !tbaa !24
  %15 = getelementptr inbounds nuw ptr, ptr %14, i64 16
  %16 = load ptr, ptr %15, align 8, !tbaa !18
  %17 = load ptr, ptr %5, align 8, !tbaa !18
  %18 = call i32 (ptr, i64, ptr, ...) @snprintf(ptr noundef %12, i64 noundef 16384, ptr noundef @.str.118, ptr noundef %13, ptr noundef %16, ptr noundef getelementptr inbounds nuw ([4 x [256 x i8]], ptr @_ZL12libFileNames, i64 0, i64 2), ptr noundef %17, ptr noundef @.str.55, ptr noundef getelementptr inbounds nuw ([4 x [256 x i8]], ptr @_ZL12libFileNames, i64 0, i64 2)) #14
  store i32 %18, ptr %10, align 4, !tbaa !15
  %19 = getelementptr inbounds [16384 x i8], ptr %9, i64 0, i64 0
  %20 = call noundef i32 @_ZL10runCommandPKca(ptr noundef %19, i8 noundef signext 0)
  store i32 %20, ptr %8, align 4, !tbaa !15
  %21 = load i32, ptr %8, align 4, !tbaa !15
  %22 = icmp ne i32 %21, 0
  br i1 %22, label %23, label %28

23:                                               ; preds = %3
  %24 = load ptr, ptr @stderr, align 8, !tbaa !31
  %25 = getelementptr inbounds [16384 x i8], ptr %9, i64 0, i64 0
  %26 = call i32 (ptr, ptr, ...) @fprintf(ptr noundef %24, ptr noundef @.str.119, ptr noundef %25) #14
  %27 = load i32, ptr %8, align 4, !tbaa !15
  store i32 %27, ptr %4, align 4
  store i32 1, ptr %11, align 4
  br label %36

28:                                               ; preds = %3
  %29 = load i8, ptr %7, align 1, !tbaa !27
  %30 = icmp ne i8 %29, 0
  br i1 %30, label %31, label %33

31:                                               ; preds = %28
  %32 = load i32, ptr %8, align 4, !tbaa !15
  store i32 %32, ptr %4, align 4
  store i32 1, ptr %11, align 4
  br label %36

33:                                               ; preds = %28
  %34 = load ptr, ptr %5, align 8, !tbaa !18
  %35 = call noundef i32 @_ZL18pkg_createSymLinksPKca(ptr noundef %34, i8 noundef signext 1)
  store i32 %35, ptr %4, align 4
  store i32 1, ptr %11, align 4
  br label %36

36:                                               ; preds = %33, %31, %23
  call void @llvm.lifetime.end.p0(i64 4, ptr %10) #14
  call void @llvm.lifetime.end.p0(i64 16384, ptr %9) #14
  call void @llvm.lifetime.end.p0(i64 4, ptr %8) #14
  %37 = load i32, ptr %4, align 4
  ret i32 %37
}