; Function Attrs: mustprogress nofree norecurse uwtable
define internal fastcc noundef range(i32 0, 2) i32 @_ZL18pkg_installLibraryPKcS0_a(ptr noundef %0, ptr noundef nonnull %1, i8 noundef signext range(i8 0, 2) %2) unnamed_addr #16 {
  %4 = alloca [16384 x i8], align 16
  call void @llvm.lifetime.start.p0(i64 16384, ptr nonnull %4) #21
  %5 = load ptr, ptr @_ZL12pkgDataFlags, align 8, !tbaa !45
  %6 = getelementptr inbounds nuw i8, ptr %5, i64 128
  %7 = load ptr, ptr %6, align 8, !tbaa !16
  %8 = call i32 (ptr, i64, ptr, ...) @snprintf(ptr noundef nonnull dereferenceable(1) %4, i64 noundef 16384, ptr noundef nonnull @.str.118, ptr noundef nonnull %1, ptr noundef %7, ptr noundef nonnull getelementptr inbounds nuw (i8, ptr @_ZL12libFileNames, i64 512), ptr noundef %0, ptr noundef nonnull @.str.55, ptr noundef nonnull getelementptr inbounds nuw (i8, ptr @_ZL12libFileNames, i64 512)) #21
  %9 = call i64 @strlen(ptr noundef nonnull dereferenceable(1) %4) #25
  %10 = and i64 %9, 4294967295
  %11 = icmp eq i64 %10, 0
  br i1 %11, label %20, label %12

12:                                               ; preds = %3
  %13 = call i32 (ptr, ...) @printf(ptr noundef nonnull dereferenceable(1) @.str.109, ptr noundef nonnull %4)
  %14 = call i32 @system(ptr noundef nonnull %4)
  %.not.i = icmp eq i32 %14, 0
  br i1 %.not.i, label %20, label %15

15:                                               ; preds = %12
  %16 = load ptr, ptr @stderr, align 8, !tbaa !20
  %17 = call i32 (ptr, ptr, ...) @fprintf(ptr noundef %16, ptr noundef nonnull @.str.110, i32 noundef %14) #24
  %18 = load ptr, ptr @stderr, align 8, !tbaa !20
  %19 = call i32 (ptr, ptr, ...) @fprintf(ptr noundef %18, ptr noundef nonnull @.str.119, ptr noundef nonnull %4) #24
  br label %23

20:                                               ; preds = %3, %12
  %.not8 = icmp eq i8 %2, 0
  br i1 %.not8, label %21, label %23

21:                                               ; preds = %20
  %22 = call fastcc noundef i32 @_ZL18pkg_createSymLinksPKca(ptr noundef %0)
  br label %23

23:                                               ; preds = %20, %21, %15
  %.0 = phi i32 [ 1, %15 ], [ %22, %21 ], [ 0, %20 ]
  call void @llvm.lifetime.end.p0(i64 16384, ptr nonnull %4) #21
  ret i32 %.0
}